	.file	"main.c"
	.intel_syntax noprefix
	.text
.Ltext0:
	.cfi_sections	.debug_frame
	.def	__main;	.scl	2;	.type	32;	.endef
	.section .rdata,"dr"
.LC0:
	.ascii "calc.exe\0"
	.section	.text.startup,"x"
	.p2align 4,,15
	.globl	main
	.def	main;	.scl	2;	.type	32;	.endef
	.seh_proc	main
main:
.LVL0:
.LFB5568:
	.file 1 "main.c"
	.loc 1 7 1 view -0
	.cfi_startproc
	.loc 1 7 1 is_stmt 0 view .LVU1
	push	rdi
	.seh_pushreg	rdi
	.cfi_def_cfa_offset 16
	.cfi_offset 5, -16
	push	rbx
	.seh_pushreg	rbx
	.cfi_def_cfa_offset 24
	.cfi_offset 3, -24
	sub	rsp, 232
	.seh_stackalloc	232
	.cfi_def_cfa_offset 256
	.seh_endprologue
	.loc 1 7 1 view .LVU2
	call	__main
.LVL1:
	.loc 1 8 5 is_stmt 1 view .LVU3
	.loc 1 9 5 view .LVU4
	.loc 1 10 5 view .LVU5
	lea	r8, 116[rsp]
	xor	eax, eax
	.loc 1 13 5 is_stmt 0 view .LVU6
	xor	r9d, r9d
	.loc 1 10 5 view .LVU7
	mov	rdi, r8
	mov	ecx, 12
	.loc 1 13 5 view .LVU8
	xor	r8d, r8d
	.loc 1 11 21 view .LVU9
	mov	DWORD PTR 112[rsp], 104
	.loc 1 10 5 view .LVU10
	rep stosq
	lea	rdx, 112[rsp]
	.loc 1 12 5 view .LVU11
	mov	QWORD PTR 80[rsp], 0
	mov	QWORD PTR 88[rsp], 0
	lea	rax, 80[rsp]
	mov	QWORD PTR 96[rsp], 0
	.loc 1 10 5 view .LVU12
	mov	DWORD PTR [rdi], 0
	.loc 1 11 5 is_stmt 1 view .LVU13
	.loc 1 12 5 view .LVU14
	.loc 1 13 5 view .LVU15
	mov	QWORD PTR 64[rsp], rdx
	lea	rdx, .LC0[rip]
	mov	QWORD PTR 72[rsp], rax
	mov	QWORD PTR 56[rsp], 0
	mov	QWORD PTR 48[rsp], 0
	mov	DWORD PTR 40[rsp], 0
	mov	DWORD PTR 32[rsp], 0
	call	[QWORD PTR __imp_CreateProcessA[rip]]
.LVL2:
	.loc 1 14 5 view .LVU16
	mov	edx, -1
	mov	rcx, QWORD PTR 80[rsp]
	call	[QWORD PTR __imp_WaitForSingleObject[rip]]
.LVL3:
	.loc 1 15 5 view .LVU17
	mov	rcx, QWORD PTR 80[rsp]
	mov	rbx, QWORD PTR __imp_CloseHandle[rip]
	call	rbx
.LVL4:
	.loc 1 16 5 view .LVU18
	mov	rcx, QWORD PTR 88[rsp]
	call	rbx
.LVL5:
	.loc 1 21 5 view .LVU19
	.loc 1 22 1 is_stmt 0 view .LVU20
	xor	eax, eax
	add	rsp, 232
	.cfi_def_cfa_offset 24
	pop	rbx
	.cfi_restore 3
	.cfi_def_cfa_offset 16
	pop	rdi
	.cfi_restore 5
	.cfi_def_cfa_offset 8
	ret
	.cfi_endproc
.LFE5568:
	.seh_endproc
	.text
.Letext0:
	.file 2 "C:/Program Files/CodeBlocks/MinGW/x86_64-w64-mingw32/include/crtdefs.h"
	.file 3 "C:/Program Files/CodeBlocks/MinGW/x86_64-w64-mingw32/include/excpt.h"
	.file 4 "C:/Program Files/CodeBlocks/MinGW/x86_64-w64-mingw32/include/minwindef.h"
	.file 5 "C:/Program Files/CodeBlocks/MinGW/x86_64-w64-mingw32/include/ctype.h"
	.file 6 "C:/Program Files/CodeBlocks/MinGW/x86_64-w64-mingw32/include/winnt.h"
	.file 7 "C:/Program Files/CodeBlocks/MinGW/x86_64-w64-mingw32/include/guiddef.h"
	.file 8 "C:/Program Files/CodeBlocks/MinGW/x86_64-w64-mingw32/include/stdlib.h"
	.file 9 "C:/Program Files/CodeBlocks/MinGW/x86_64-w64-mingw32/include/malloc.h"
	.file 10 "C:/Program Files/CodeBlocks/MinGW/x86_64-w64-mingw32/include/processthreadsapi.h"
	.file 11 "C:/Program Files/CodeBlocks/MinGW/x86_64-w64-mingw32/include/rpcdce.h"
	.file 12 "C:/Program Files/CodeBlocks/MinGW/x86_64-w64-mingw32/include/wtypesbase.h"
	.file 13 "C:/Program Files/CodeBlocks/MinGW/x86_64-w64-mingw32/include/unknwnbase.h"
	.file 14 "C:/Program Files/CodeBlocks/MinGW/x86_64-w64-mingw32/include/objidlbase.h"
	.file 15 "C:/Program Files/CodeBlocks/MinGW/x86_64-w64-mingw32/include/cguid.h"
	.file 16 "C:/Program Files/CodeBlocks/MinGW/x86_64-w64-mingw32/include/wtypes.h"
	.file 17 "C:/Program Files/CodeBlocks/MinGW/x86_64-w64-mingw32/include/objidl.h"
	.file 18 "C:/Program Files/CodeBlocks/MinGW/x86_64-w64-mingw32/include/oleidl.h"
	.file 19 "C:/Program Files/CodeBlocks/MinGW/x86_64-w64-mingw32/include/servprov.h"
	.file 20 "C:/Program Files/CodeBlocks/MinGW/x86_64-w64-mingw32/include/oaidl.h"
	.file 21 "C:/Program Files/CodeBlocks/MinGW/x86_64-w64-mingw32/include/msxml.h"
	.file 22 "C:/Program Files/CodeBlocks/MinGW/x86_64-w64-mingw32/include/urlmon.h"
	.file 23 "C:/Program Files/CodeBlocks/MinGW/x86_64-w64-mingw32/include/propidl.h"
	.file 24 "C:/Program Files/CodeBlocks/MinGW/x86_64-w64-mingw32/include/oleauto.h"
	.file 25 "C:/Program Files/CodeBlocks/MinGW/x86_64-w64-mingw32/include/winioctl.h"
	.file 26 "C:/Program Files/CodeBlocks/MinGW/x86_64-w64-mingw32/include/winsmcrd.h"
	.file 27 "C:/Program Files/CodeBlocks/MinGW/x86_64-w64-mingw32/include/winscard.h"
	.file 28 "C:/Program Files/CodeBlocks/MinGW/x86_64-w64-mingw32/include/commdlg.h"
	.file 29 "C:/Program Files/CodeBlocks/MinGW/x86_64-w64-mingw32/include/synchapi.h"
	.file 30 "C:/Program Files/CodeBlocks/MinGW/x86_64-w64-mingw32/include/handleapi.h"